; Function Attrs: nounwind uwtable
define internal fastcc void @extent_maximally_purge(ptr noundef %0, ptr noundef %1, ptr noundef %2, ptr noundef %3) unnamed_addr #1 {
  %5 = getelementptr i8, ptr %3, i64 16
  %.val = load i64, ptr %5, align 8, !tbaa !35
  %6 = and i64 %.val, -4096
  tail call void @duckdb_je_extent_dalloc_wrapper(ptr noundef %0, ptr noundef %1, ptr noundef %2, ptr noundef %3)
  %7 = getelementptr inbounds nuw i8, ptr %1, i64 62224
  %8 = load ptr, ptr %7, align 8, !tbaa !43
  %9 = getelementptr inbounds nuw i8, ptr %8, i64 8
  %10 = atomicrmw add ptr %9, i64 1 monotonic, align 8
  %11 = load ptr, ptr %7, align 8, !tbaa !43
  %12 = getelementptr inbounds nuw i8, ptr %11, i64 16
  %13 = lshr i64 %.val, 12
  %14 = atomicrmw add ptr %12, i64 %13 monotonic, align 8
  %15 = load ptr, ptr %7, align 8, !tbaa !43
  %16 = getelementptr inbounds nuw i8, ptr %15, i64 56
  %17 = atomicrmw sub ptr %16, i64 %6 monotonic, align 8
  ret void
}